target datalayout = "e-m:e-p270:32:32-p271:32:32-p272:64:64-i64:64-i128:128-f80:128-n8:16:32:64-S128"
target triple = "x86_64-pc-linux-gnu"

%struct.bio_msg_st = type { ptr, i64, ptr, ptr, i64 }

@.str = private unnamed_addr constant [38 x i8] c"../openssl/test/helpers/quictestlib.c\00", align 1
@.str.50 = private unnamed_addr constant [38 x i8] c"BIO_ADDR_copy(dst->local, src->local)\00", align 1
@.str.51 = private unnamed_addr constant [36 x i8] c"BIO_ADDR_copy(dst->peer, src->peer)\00", align 1

; Function Attrs: nounwind uwtable
define dso_local i32 @bio_msg_copy(ptr noundef %0, ptr noundef %1) #0 {
  %3 = alloca i32, align 4
  %4 = alloca ptr, align 8
  %5 = alloca ptr, align 8
  store ptr %0, ptr %4, align 8, !tbaa !129
  store ptr %1, ptr %5, align 8, !tbaa !129
  %6 = load ptr, ptr %4, align 8, !tbaa !129
  %7 = getelementptr inbounds nuw %struct.bio_msg_st, ptr %6, i32 0, i32 0
  %8 = load ptr, ptr %7, align 8, !tbaa !143
  %9 = load ptr, ptr %5, align 8, !tbaa !129
  %10 = getelementptr inbounds nuw %struct.bio_msg_st, ptr %9, i32 0, i32 0
  %11 = load ptr, ptr %10, align 8, !tbaa !143
  %12 = load ptr, ptr %5, align 8, !tbaa !129
  %13 = getelementptr inbounds nuw %struct.bio_msg_st, ptr %12, i32 0, i32 1
  %14 = load i64, ptr %13, align 8, !tbaa !144
  call void @llvm.memcpy.p0.p0.i64(ptr align 1 %8, ptr align 1 %11, i64 %14, i1 false)
  %15 = load ptr, ptr %5, align 8, !tbaa !129
  %16 = getelementptr inbounds nuw %struct.bio_msg_st, ptr %15, i32 0, i32 1
  %17 = load i64, ptr %16, align 8, !tbaa !144
  %18 = load ptr, ptr %4, align 8, !tbaa !129
  %19 = getelementptr inbounds nuw %struct.bio_msg_st, ptr %18, i32 0, i32 1
  store i64 %17, ptr %19, align 8, !tbaa !144
  %20 = load ptr, ptr %5, align 8, !tbaa !129
  %21 = getelementptr inbounds nuw %struct.bio_msg_st, ptr %20, i32 0, i32 4
  %22 = load i64, ptr %21, align 8, !tbaa !145
  %23 = load ptr, ptr %4, align 8, !tbaa !129
  %24 = getelementptr inbounds nuw %struct.bio_msg_st, ptr %23, i32 0, i32 4
  store i64 %22, ptr %24, align 8, !tbaa !145
  %25 = load ptr, ptr %4, align 8, !tbaa !129
  %26 = getelementptr inbounds nuw %struct.bio_msg_st, ptr %25, i32 0, i32 3
  %27 = load ptr, ptr %26, align 8, !tbaa !146
  %28 = icmp ne ptr %27, null
  br i1 %28, label %29, label %53

29:                                               ; preds = %2
  %30 = load ptr, ptr %5, align 8, !tbaa !129
  %31 = getelementptr inbounds nuw %struct.bio_msg_st, ptr %30, i32 0, i32 3
  %32 = load ptr, ptr %31, align 8, !tbaa !146
  %33 = icmp ne ptr %32, null
  br i1 %33, label %34, label %48

34:                                               ; preds = %29
  %35 = load ptr, ptr %4, align 8, !tbaa !129
  %36 = getelementptr inbounds nuw %struct.bio_msg_st, ptr %35, i32 0, i32 3
  %37 = load ptr, ptr %36, align 8, !tbaa !146
  %38 = load ptr, ptr %5, align 8, !tbaa !129
  %39 = getelementptr inbounds nuw %struct.bio_msg_st, ptr %38, i32 0, i32 3
  %40 = load ptr, ptr %39, align 8, !tbaa !146
  %41 = call i32 @BIO_ADDR_copy(ptr noundef %37, ptr noundef %40)
  %42 = icmp ne i32 %41, 0
  %43 = zext i1 %42 to i32
  %44 = call i32 @test_true(ptr noundef @.str, i32 noundef 1287, ptr noundef @.str.50, i32 noundef %43)
  %45 = icmp ne i32 %44, 0
  br i1 %45, label %47, label %46

46:                                               ; preds = %34
  store i32 0, ptr %3, align 4
  br label %67

47:                                               ; preds = %34
  br label %52

48:                                               ; preds = %29
  %49 = load ptr, ptr %4, align 8, !tbaa !129
  %50 = getelementptr inbounds nuw %struct.bio_msg_st, ptr %49, i32 0, i32 3
  %51 = load ptr, ptr %50, align 8, !tbaa !146
  call void @BIO_ADDR_clear(ptr noundef %51)
  br label %52

52:                                               ; preds = %48, %47
  br label %53

53:                                               ; preds = %52, %2
  %54 = load ptr, ptr %4, align 8, !tbaa !129
  %55 = getelementptr inbounds nuw %struct.bio_msg_st, ptr %54, i32 0, i32 2
  %56 = load ptr, ptr %55, align 8, !tbaa !147
  %57 = load ptr, ptr %5, align 8, !tbaa !129
  %58 = getelementptr inbounds nuw %struct.bio_msg_st, ptr %57, i32 0, i32 2
  %59 = load ptr, ptr %58, align 8, !tbaa !147
  %60 = call i32 @BIO_ADDR_copy(ptr noundef %56, ptr noundef %59)
  %61 = icmp ne i32 %60, 0
  %62 = zext i1 %61 to i32
  %63 = call i32 @test_true(ptr noundef @.str, i32 noundef 1293, ptr noundef @.str.51, i32 noundef %62)
  %64 = icmp ne i32 %63, 0
  br i1 %64, label %66, label %65

65:                                               ; preds = %53
  store i32 0, ptr %3, align 4
  br label %67

66:                                               ; preds = %53
  store i32 1, ptr %3, align 4
  br label %67

67:                                               ; preds = %66, %65, %46
  %68 = load i32, ptr %3, align 4
  ret i32 %68
}