; Function Attrs: nounwind uwtable
define dso_local range(i32 0, 2) i32 @bio_msg_copy(ptr noundef captures(none) initializes((8, 16), (32, 40)) %0, ptr noundef readonly captures(none) %1) local_unnamed_addr #0 {
  %3 = load ptr, ptr %0, align 8, !tbaa !104
  %4 = load ptr, ptr %1, align 8, !tbaa !104
  %5 = getelementptr inbounds nuw i8, ptr %1, i64 8
  %6 = load i64, ptr %5, align 8, !tbaa !105
  tail call void @llvm.memcpy.p0.p0.i64(ptr align 1 %3, ptr align 1 %4, i64 %6, i1 false)
  %7 = load i64, ptr %5, align 8, !tbaa !105
  %8 = getelementptr inbounds nuw i8, ptr %0, i64 8
  store i64 %7, ptr %8, align 8, !tbaa !105
  %9 = getelementptr inbounds nuw i8, ptr %1, i64 32
  %10 = load i64, ptr %9, align 8, !tbaa !106
  %11 = getelementptr inbounds nuw i8, ptr %0, i64 32
  store i64 %10, ptr %11, align 8, !tbaa !106
  %12 = getelementptr inbounds nuw i8, ptr %0, i64 24
  %13 = load ptr, ptr %12, align 8, !tbaa !107
  %.not = icmp eq ptr %13, null
  br i1 %.not, label %23, label %14

14:                                               ; preds = %2
  %15 = getelementptr inbounds nuw i8, ptr %1, i64 24
  %16 = load ptr, ptr %15, align 8, !tbaa !107
  %.not16 = icmp eq ptr %16, null
  br i1 %.not16, label %22, label %17

17:                                               ; preds = %14
  %18 = tail call i32 @BIO_ADDR_copy(ptr noundef nonnull %13, ptr noundef nonnull %16) #10
  %19 = icmp ne i32 %18, 0
  %20 = zext i1 %19 to i32
  %21 = tail call i32 @test_true(ptr noundef nonnull @.str, i32 noundef 1287, ptr noundef nonnull @.str.50, i32 noundef %20) #10
  %.not17 = icmp eq i32 %21, 0
  br i1 %.not17, label %32, label %23

22:                                               ; preds = %14
  tail call void @BIO_ADDR_clear(ptr noundef nonnull %13) #10
  br label %23

23:                                               ; preds = %22, %17, %2
  %24 = getelementptr inbounds nuw i8, ptr %0, i64 16
  %25 = load ptr, ptr %24, align 8, !tbaa !108
  %26 = getelementptr inbounds nuw i8, ptr %1, i64 16
  %27 = load ptr, ptr %26, align 8, !tbaa !108
  %28 = tail call i32 @BIO_ADDR_copy(ptr noundef %25, ptr noundef %27) #10
  %29 = icmp ne i32 %28, 0
  %30 = zext i1 %29 to i32
  %31 = tail call i32 @test_true(ptr noundef nonnull @.str, i32 noundef 1293, ptr noundef nonnull @.str.51, i32 noundef %30) #10
  %.not18 = icmp ne i32 %31, 0
  %. = zext i1 %.not18 to i32
  br label %32

32:                                               ; preds = %23, %17
  %.0 = phi i32 [ 0, %17 ], [ %., %23 ]
  ret i32 %.0
}